target datalayout = "e-m:e-p270:32:32-p271:32:32-p272:64:64-i64:64-i128:128-f80:128-n8:16:32:64-S128"
target triple = "x86_64-pc-linux-gnu"

; Function Attrs: mustprogress uwtable
define void @_ZN6opencc8UTF8Util11SkipUtf8BomEP8_IO_FILE(ptr noundef %0) #3 align 2 {
  %2 = alloca ptr, align 8
  %3 = alloca [3 x i32], align 4
  %4 = alloca i32, align 4
  store ptr %0, ptr %2, align 8, !tbaa !12
  %5 = load ptr, ptr %2, align 8, !tbaa !12
  %6 = icmp eq ptr %5, null
  br i1 %6, label %7, label %8

7:                                                ; preds = %1
  br label %63

8:                                                ; preds = %1
  %9 = load ptr, ptr %2, align 8, !tbaa !12
  %10 = call i64 @ftell(ptr noundef %9)
  %11 = icmp ne i64 %10, 0
  br i1 %11, label %12, label %13

12:                                               ; preds = %8
  br label %63

13:                                               ; preds = %8
  call void @llvm.lifetime.start.p0(i64 12, ptr %3) #4
  call void @llvm.lifetime.start.p0(i64 4, ptr %4) #4
  store i32 0, ptr %4, align 4, !tbaa !14
  br label %14

14:                                               ; preds = %27, %13
  %15 = load i32, ptr %4, align 4, !tbaa !14
  %16 = icmp sle i32 %15, 2
  br i1 %16, label %17, label %24

17:                                               ; preds = %14
  %18 = load ptr, ptr %2, align 8, !tbaa !12
  %19 = call i32 @getc(ptr noundef %18)
  %20 = load i32, ptr %4, align 4, !tbaa !14
  %21 = sext i32 %20 to i64
  %22 = getelementptr inbounds [3 x i32], ptr %3, i64 0, i64 %21
  store i32 %19, ptr %22, align 4, !tbaa !14
  %23 = icmp ne i32 %19, -1
  br label %24

24:                                               ; preds = %17, %14
  %25 = phi i1 [ false, %14 ], [ %23, %17 ]
  br i1 %25, label %26, label %30

26:                                               ; preds = %24
  br label %27

27:                                               ; preds = %26
  %28 = load i32, ptr %4, align 4, !tbaa !14
  %29 = add nsw i32 %28, 1
  store i32 %29, ptr %4, align 4, !tbaa !14
  br label %14, !llvm.loop !16

30:                                               ; preds = %24
  %31 = load i32, ptr %4, align 4, !tbaa !14
  %32 = icmp slt i32 %31, 3
  br i1 %32, label %45, label %33

33:                                               ; preds = %30
  %34 = getelementptr inbounds [3 x i32], ptr %3, i64 0, i64 0
  %35 = load i32, ptr %34, align 4, !tbaa !14
  %36 = icmp ne i32 %35, 239
  br i1 %36, label %45, label %37

37:                                               ; preds = %33
  %38 = getelementptr inbounds [3 x i32], ptr %3, i64 0, i64 1
  %39 = load i32, ptr %38, align 4, !tbaa !14
  %40 = icmp ne i32 %39, 187
  br i1 %40, label %45, label %41

41:                                               ; preds = %37
  %42 = getelementptr inbounds [3 x i32], ptr %3, i64 0, i64 2
  %43 = load i32, ptr %42, align 4, !tbaa !14
  %44 = icmp ne i32 %43, 191
  br i1 %44, label %45, label %62

45:                                               ; preds = %41, %37, %33, %30
  %46 = load i32, ptr %4, align 4, !tbaa !14
  %47 = add nsw i32 %46, -1
  store i32 %47, ptr %4, align 4, !tbaa !14
  br label %48

48:                                               ; preds = %58, %45
  %49 = load i32, ptr %4, align 4, !tbaa !14
  %50 = icmp sge i32 %49, 0
  br i1 %50, label %51, label %61

51:                                               ; preds = %48
  %52 = load i32, ptr %4, align 4, !tbaa !14
  %53 = sext i32 %52 to i64
  %54 = getelementptr inbounds [3 x i32], ptr %3, i64 0, i64 %53
  %55 = load i32, ptr %54, align 4, !tbaa !14
  %56 = load ptr, ptr %2, align 8, !tbaa !12
  %57 = call i32 @ungetc(i32 noundef %55, ptr noundef %56)
  br label %58

58:                                               ; preds = %51
  %59 = load i32, ptr %4, align 4, !tbaa !14
  %60 = add nsw i32 %59, -1
  store i32 %60, ptr %4, align 4, !tbaa !14
  br label %48, !llvm.loop !18

61:                                               ; preds = %48
  br label %62

62:                                               ; preds = %61, %41
  call void @llvm.lifetime.end.p0(i64 4, ptr %4) #4
  call void @llvm.lifetime.end.p0(i64 12, ptr %3) #4
  br label %63

63:                                               ; preds = %62, %12, %7
  ret void
}